; Function Attrs: mustprogress nofree nounwind uwtable
define hidden noundef nonnull align 8 dereferenceable(24) ptr @_ZNK6Assimp3FBX12MeshGeometry15GetVertexColorsEj(ptr noundef nonnull readnone align 8 dereferenceable(1000) %this, i32 noundef %index) local_unnamed_addr #8 align 2 {
entry:
  %0 = load atomic i8, ptr @_ZGVZNK6Assimp3FBX12MeshGeometry15GetVertexColorsEjE5empty acquire, align 8
  %guard.uninitialized = icmp eq i8 %0, 0
  br i1 %guard.uninitialized, label %init.check, label %init.end, !prof !18

init.check:                                       ; preds = %entry
  %1 = tail call i32 @__cxa_guard_acquire(ptr nonnull @_ZGVZNK6Assimp3FBX12MeshGeometry15GetVertexColorsEjE5empty) #23
  %tobool.not = icmp eq i32 %1, 0
  br i1 %tobool.not, label %init.end, label %init

init:                                             ; preds = %init.check
  tail call void @llvm.memset.p0.i64(ptr noundef nonnull align 8 dereferenceable(24) @_ZZNK6Assimp3FBX12MeshGeometry15GetVertexColorsEjE5empty, i8 0, i64 24, i1 false)
  %2 = tail call i32 @__cxa_atexit(ptr nonnull @_ZNSt6vectorI9aiColor4tIfESaIS1_EED2Ev, ptr nonnull @_ZZNK6Assimp3FBX12MeshGeometry15GetVertexColorsEjE5empty, ptr nonnull @__dso_handle) #23
  tail call void @__cxa_guard_release(ptr nonnull @_ZGVZNK6Assimp3FBX12MeshGeometry15GetVertexColorsEjE5empty) #23
  br label %init.end

init.end:                                         ; preds = %init, %init.check, %entry
  %cmp = icmp ugt i32 %index, 7
  %m_colors = getelementptr inbounds i8, ptr %this, i64 736
  %idxprom = zext nneg i32 %index to i64
  %arrayidx = getelementptr inbounds [8 x %"class.std::vector.81"], ptr %m_colors, i64 0, i64 %idxprom
  %cond-lvalue = select i1 %cmp, ptr @_ZZNK6Assimp3FBX12MeshGeometry15GetVertexColorsEjE5empty, ptr %arrayidx
  ret ptr %cond-lvalue
}